(lp0
F0.694204
aF0.271227
aF0.312607
aF0.822369
aF0.312607
aF0.786295
aF0.66731
aF0.334107
aF-0.658692
aF-0.658692
aF0.415642
aF0.312607
aF0.428666
aF0.311774
aF0.314226
aF0.506748
aF-0.192246
aF-0.437899
aF-0.68558
aF-0.698281
aF-0.284095
aF-0.658692
aF-0.658692
aF-0.275187
aF-0.228133
aF-0.68558
aF0.577873
aF-0.769164
aF0.395918
aF0.923681
aF0.210002
aF0.272757
aF-0.68558
aF-0.410441
aF0.460478
aF0.034084
aF-0.727078
aF0.382121
aF-0.881234
aF-0.667507
aF-0.464703
aF-0.658692
aF-0.68558
aF0.841346
aF-0.60315
aF0.267072
aF-0.503767
aF-0.658547
aF0.903612
aF0.534439
aF0.326737
aF-0.410441
aF0.219915
aF-0.758698
aF-0.410441
aF0.51019
aF0.100739
aF0.764908
aF0.704705
aF-0.250794
aF-0.373039
aF-0.410441
aF0.897541
aF-0.947779
aF0.413135
aF-0.670035
aF-0.96737
aF-0.410441
aF0.043217
aF0.903612
aF0.441752
aF-0.456037
aF-0.68558
aF-0.410441
aF-0.639874
aF0.544666
aF-0.331502
aF-0.670035
aF0.534304
aF0.25264
aF0.506748
aF0.453241
aF-0.410441
aF-0.469752
aF0.483404
aF0.928171
aF0.899091
aF-0.701564
aF-0.496071
aF-0.713532
aF-0.667507
aF0.948265
aF0.177462
aF0.747704
aF-0.596418
aF-0.287726
aF-0.764486
aF-0.537417
aF-0.410441
aF-0.777674
aF0.565386
aF0.486435
aF0.468958
aF-0.749275
aF-0.39228
aF0.269613
aF-0.410441
aF-0.842003
aF0.954684
aF-0.769164
aF0.321775
aF0.219376
aF-0.470289
aF0.565386
aF0.468958
aF0.426288
aF-0.690101
aF-0.478556
aF-0.562819
aF0.705994
aF-0.377694
aF-0.769164
aF-0.311241
aF-0.437763
aF-0.203694
aF-0.40173
aF0.576232
aF-0.659035
aF0.412006
aF0.668421
aF-0.284095
aF0.357908
aF-0.691195
aF0.22542
aF0.219102
aF0.434379
aF-0.769164
aF0.592338
aF-0.442474
aF0.592338
aF0.334107
aF0.300575
aF0.68068
a.